target datalayout = "e-m:e-p270:32:32-p271:32:32-p272:64:64-i64:64-f80:128-n8:16:32:64-S128"
target triple = "x86_64-pc-linux-gnu"

@.str = private unnamed_addr constant [3 x i8] c"%d\00", align 1
@.str.1 = private unnamed_addr constant [6 x i8] c"%d,%d\00", align 1

; Function Attrs: noinline nounwind uwtable
define dso_local void @main() #0 {
  %1 = alloca i32, align 4
  %2 = alloca [20 x i32], align 16
  %3 = alloca i32, align 4
  %4 = alloca i32, align 4
  %5 = alloca i32, align 4
  %6 = alloca i32, align 4
  %7 = alloca i32, align 4
  %8 = alloca i32, align 4
  %9 = alloca float, align 4
  %10 = alloca float, align 4
  store i32 0, i32* %4, align 4
  store i32 0, i32* %6, align 4
  %11 = call i32 (i8*, ...) @__isoc99_scanf(i8* getelementptr inbounds ([3 x i8], [3 x i8]* @.str, i64 0, i64 0), i32* %1)
  store i32 0, i32* %5, align 4
  br label %12

12:                                               ; preds = %21, %0
  %13 = load i32, i32* %5, align 4
  %14 = load i32, i32* %1, align 4
  %15 = icmp slt i32 %13, %14
  br i1 %15, label %16, label %24

16:                                               ; preds = %12
  %17 = load i32, i32* %5, align 4
  %18 = sext i32 %17 to i64
  %19 = getelementptr inbounds [20 x i32], [20 x i32]* %2, i64 0, i64 %18
  %20 = call i32 (i8*, ...) @__isoc99_scanf(i8* getelementptr inbounds ([3 x i8], [3 x i8]* @.str, i64 0, i64 0), i32* %19)
  br label %21

21:                                               ; preds = %16
  %22 = load i32, i32* %5, align 4
  %23 = add nsw i32 %22, 1
  store i32 %23, i32* %5, align 4
  br label %12

24:                                               ; preds = %12
  %25 = load i32, i32* %1, align 4
  %26 = sitofp i32 %25 to float
  store float %26, float* %10, align 4
  store i32 0, i32* %5, align 4
  store i32 0, i32* %3, align 4
  br label %27

27:                                               ; preds = %38, %24
  %28 = load i32, i32* %5, align 4
  %29 = load i32, i32* %1, align 4
  %30 = icmp slt i32 %28, %29
  br i1 %30, label %31, label %41

31:                                               ; preds = %27
  %32 = load i32, i32* %3, align 4
  %33 = load i32, i32* %5, align 4
  %34 = sext i32 %33 to i64
  %35 = getelementptr inbounds [20 x i32], [20 x i32]* %2, i64 0, i64 %34
  %36 = load i32, i32* %35, align 4
  %37 = add nsw i32 %32, %36
  store i32 %37, i32* %3, align 4
  br label %38

38:                                               ; preds = %31
  %39 = load i32, i32* %5, align 4
  %40 = add nsw i32 %39, 1
  store i32 %40, i32* %5, align 4
  br label %27

41:                                               ; preds = %27
  %42 = load i32, i32* %3, align 4
  %43 = sitofp i32 %42 to float
  %44 = load float, float* %10, align 4
  %45 = fdiv float %43, %44
  store float %45, float* %9, align 4
  %46 = getelementptr inbounds [20 x i32], [20 x i32]* %2, i64 0, i64 0
  %47 = load i32, i32* %46, align 16
  store i32 %47, i32* %8, align 4
  store i32 0, i32* %5, align 4
  br label %48

48:                                               ; preds = %66, %41
  %49 = load i32, i32* %5, align 4
  %50 = load i32, i32* %1, align 4
  %51 = icmp slt i32 %49, %50
  br i1 %51, label %52, label %69

52:                                               ; preds = %48
  %53 = load i32, i32* %5, align 4
  %54 = sext i32 %53 to i64
  %55 = getelementptr inbounds [20 x i32], [20 x i32]* %2, i64 0, i64 %54
  %56 = load i32, i32* %55, align 4
  %57 = load i32, i32* %8, align 4
  %58 = icmp slt i32 %56, %57
  br i1 %58, label %59, label %65

59:                                               ; preds = %52
  %60 = load i32, i32* %5, align 4
  %61 = sext i32 %60 to i64
  %62 = getelementptr inbounds [20 x i32], [20 x i32]* %2, i64 0, i64 %61
  %63 = load i32, i32* %62, align 4
  store i32 %63, i32* %8, align 4
  %64 = load i32, i32* %5, align 4
  store i32 %64, i32* %4, align 4
  br label %65

65:                                               ; preds = %59, %52
  br label %66

66:                                               ; preds = %65
  %67 = load i32, i32* %5, align 4
  %68 = add nsw i32 %67, 1
  store i32 %68, i32* %5, align 4
  br label %48

69:                                               ; preds = %48
  %70 = getelementptr inbounds [20 x i32], [20 x i32]* %2, i64 0, i64 0
  %71 = load i32, i32* %70, align 16
  store i32 %71, i32* %7, align 4
  store i32 0, i32* %5, align 4
  br label %72

72:                                               ; preds = %90, %69
  %73 = load i32, i32* %5, align 4
  %74 = load i32, i32* %1, align 4
  %75 = icmp slt i32 %73, %74
  br i1 %75, label %76, label %93

76:                                               ; preds = %72
  %77 = load i32, i32* %5, align 4
  %78 = sext i32 %77 to i64
  %79 = getelementptr inbounds [20 x i32], [20 x i32]* %2, i64 0, i64 %78
  %80 = load i32, i32* %79, align 4
  %81 = load i32, i32* %7, align 4
  %82 = icmp sgt i32 %80, %81
  br i1 %82, label %83, label %89

83:                                               ; preds = %76
  %84 = load i32, i32* %5, align 4
  %85 = sext i32 %84 to i64
  %86 = getelementptr inbounds [20 x i32], [20 x i32]* %2, i64 0, i64 %85
  %87 = load i32, i32* %86, align 4
  store i32 %87, i32* %7, align 4
  %88 = load i32, i32* %5, align 4
  store i32 %88, i32* %6, align 4
  br label %89

89:                                               ; preds = %83, %76
  br label %90

90:                                               ; preds = %89
  %91 = load i32, i32* %5, align 4
  %92 = add nsw i32 %91, 1
  store i32 %92, i32* %5, align 4
  br label %72

93:                                               ; preds = %72
  %94 = load i32, i32* %4, align 4
  %95 = sext i32 %94 to i64
  %96 = getelementptr inbounds [20 x i32], [20 x i32]* %2, i64 0, i64 %95
  %97 = load i32, i32* %96, align 4
  %98 = sitofp i32 %97 to float
  %99 = load float, float* %9, align 4
  %100 = fsub float %98, %99
  %101 = fpext float %100 to double
  %102 = call double @llvm.fabs.f64(double %101)
  %103 = load i32, i32* %6, align 4
  %104 = sext i32 %103 to i64
  %105 = getelementptr inbounds [20 x i32], [20 x i32]* %2, i64 0, i64 %104
  %106 = load i32, i32* %105, align 4
  %107 = sitofp i32 %106 to float
  %108 = load float, float* %9, align 4
  %109 = fsub float %107, %108
  %110 = fpext float %109 to double
  %111 = call double @llvm.fabs.f64(double %110)
  %112 = fsub double %102, %111
  %113 = call double @llvm.fabs.f64(double %112)
  %114 = fcmp olt double %113, 1.000000e-05
  br i1 %114, label %115, label %125

115:                                              ; preds = %93
  %116 = load i32, i32* %4, align 4
  %117 = sext i32 %116 to i64
  %118 = getelementptr inbounds [20 x i32], [20 x i32]* %2, i64 0, i64 %117
  %119 = load i32, i32* %118, align 4
  %120 = load i32, i32* %6, align 4
  %121 = sext i32 %120 to i64
  %122 = getelementptr inbounds [20 x i32], [20 x i32]* %2, i64 0, i64 %121
  %123 = load i32, i32* %122, align 4
  %124 = call i32 (i8*, ...) @printf(i8* getelementptr inbounds ([6 x i8], [6 x i8]* @.str.1, i64 0, i64 0), i32 %119, i32 %123)
  br label %179

125:                                              ; preds = %93
  %126 = load i32, i32* %4, align 4
  %127 = sext i32 %126 to i64
  %128 = getelementptr inbounds [20 x i32], [20 x i32]* %2, i64 0, i64 %127
  %129 = load i32, i32* %128, align 4
  %130 = sitofp i32 %129 to float
  %131 = load float, float* %9, align 4
  %132 = fsub float %130, %131
  %133 = fpext float %132 to double
  %134 = call double @llvm.fabs.f64(double %133)
  %135 = load i32, i32* %6, align 4
  %136 = sext i32 %135 to i64
  %137 = getelementptr inbounds [20 x i32], [20 x i32]* %2, i64 0, i64 %136
  %138 = load i32, i32* %137, align 4
  %139 = sitofp i32 %138 to float
  %140 = load float, float* %9, align 4
  %141 = fsub float %139, %140
  %142 = fpext float %141 to double
  %143 = call double @llvm.fabs.f64(double %142)
  %144 = fcmp ogt double %134, %143
  br i1 %144, label %145, label %151

145:                                              ; preds = %125
  %146 = load i32, i32* %4, align 4
  %147 = sext i32 %146 to i64
  %148 = getelementptr inbounds [20 x i32], [20 x i32]* %2, i64 0, i64 %147
  %149 = load i32, i32* %148, align 4
  %150 = call i32 (i8*, ...) @printf(i8* getelementptr inbounds ([3 x i8], [3 x i8]* @.str, i64 0, i64 0), i32 %149)
  br label %178

151:                                              ; preds = %125
  %152 = load i32, i32* %4, align 4
  %153 = sext i32 %152 to i64
  %154 = getelementptr inbounds [20 x i32], [20 x i32]* %2, i64 0, i64 %153
  %155 = load i32, i32* %154, align 4
  %156 = sitofp i32 %155 to float
  %157 = load float, float* %9, align 4
  %158 = fsub float %156, %157
  %159 = fpext float %158 to double
  %160 = call double @llvm.fabs.f64(double %159)
  %161 = load i32, i32* %6, align 4
  %162 = sext i32 %161 to i64
  %163 = getelementptr inbounds [20 x i32], [20 x i32]* %2, i64 0, i64 %162
  %164 = load i32, i32* %163, align 4
  %165 = sitofp i32 %164 to float
  %166 = load float, float* %9, align 4
  %167 = fsub float %165, %166
  %168 = fpext float %167 to double
  %169 = call double @llvm.fabs.f64(double %168)
  %170 = fcmp olt double %160, %169
  br i1 %170, label %171, label %177

171:                                              ; preds = %151
  %172 = load i32, i32* %6, align 4
  %173 = sext i32 %172 to i64
  %174 = getelementptr inbounds [20 x i32], [20 x i32]* %2, i64 0, i64 %173
  %175 = load i32, i32* %174, align 4
  %176 = call i32 (i8*, ...) @printf(i8* getelementptr inbounds ([3 x i8], [3 x i8]* @.str, i64 0, i64 0), i32 %175)
  br label %177

177:                                              ; preds = %171, %151
  br label %178

178:                                              ; preds = %177, %145
  br label %179

179:                                              ; preds = %178, %115
  ret void
}